; Function Attrs: nounwind uwtable
define internal noundef i32 @luaB_costatus(ptr noundef %0) #0 {
  %2 = alloca %struct.lua_Debug, align 8
  %3 = tail call ptr @lua_tothread(ptr noundef %0, i32 noundef 1) #3
  %.not.i = icmp eq ptr %3, null
  br i1 %.not.i, label %4, label %getco.exit, !prof !4

4:                                                ; preds = %1
  %5 = tail call i32 @luaL_typeerror(ptr noundef %0, i32 noundef 1, ptr noundef nonnull @.str.8) #3
  br label %getco.exit

getco.exit:                                       ; preds = %1, %4
  %6 = icmp eq ptr %0, %3
  br i1 %6, label %auxstatus.exit, label %7

7:                                                ; preds = %getco.exit
  %8 = tail call i32 @lua_status(ptr noundef %3) #3
  switch i32 %8, label %15 [
    i32 1, label %auxstatus.exit
    i32 0, label %9
  ]

9:                                                ; preds = %7
  call void @llvm.lifetime.start.p0(i64 144, ptr nonnull %2) #3
  %10 = call i32 @lua_getstack(ptr noundef %3, i32 noundef 0, ptr noundef nonnull %2) #3
  %.not.i4 = icmp eq i32 %10, 0
  br i1 %.not.i4, label %11, label %14

11:                                               ; preds = %9
  %12 = call i32 @lua_gettop(ptr noundef %3) #3
  %13 = icmp eq i32 %12, 0
  %..i = select i1 %13, i64 1, i64 2
  br label %14

14:                                               ; preds = %11, %9
  %.1.i = phi i64 [ 3, %9 ], [ %..i, %11 ]
  call void @llvm.lifetime.end.p0(i64 144, ptr nonnull %2) #3
  br label %auxstatus.exit

15:                                               ; preds = %7
  br label %auxstatus.exit

auxstatus.exit:                                   ; preds = %getco.exit, %7, %14, %15
  %.0.i = phi i64 [ 1, %15 ], [ %.1.i, %14 ], [ 0, %getco.exit ], [ 2, %7 ]
  %16 = getelementptr inbounds nuw [4 x ptr], ptr @statname, i64 0, i64 %.0.i
  %17 = load ptr, ptr %16, align 8, !tbaa !5
  %18 = call ptr @lua_pushstring(ptr noundef %0, ptr noundef %17) #3
  ret i32 1
}